; Function Attrs: mustprogress uwtable
define noundef nonnull align 8 dereferenceable(56) ptr @_ZN17RichParameterList18getParameterByNameERK7QString(ptr noundef nonnull readonly align 8 dereferenceable(24) %0, ptr noundef nonnull align 8 dereferenceable(8) %1) local_unnamed_addr #9 align 2 personality ptr @__gxx_personality_v0 {
  %3 = alloca %class.QString, align 8
  %4 = alloca %class.QString, align 8
  %.sroa.017.028 = load ptr, ptr %0, align 8
  %.not2729 = icmp eq ptr %.sroa.017.028, %0
  br i1 %.not2729, label %._crit_edge, label %.lr.ph

.lr.ph:                                           ; preds = %2, %11
  %.sroa.017.030 = phi ptr [ %.sroa.017.0, %11 ], [ %.sroa.017.028, %2 ]
  %5 = getelementptr inbounds i8, ptr %.sroa.017.030, i64 16
  %6 = load ptr, ptr %5, align 8
  %.not = icmp eq ptr %6, null
  br i1 %.not, label %11, label %7

7:                                                ; preds = %.lr.ph
  %8 = tail call noundef nonnull align 8 dereferenceable(8) ptr @_ZNK13RichParameter4nameEv(ptr noundef nonnull align 8 dereferenceable(56) %6)
  %9 = tail call noundef zeroext i1 @_ZeqRK7QStringS1_(ptr noundef nonnull align 8 dereferenceable(8) %8, ptr noundef nonnull align 8 dereferenceable(8) %1) #22
  br i1 %9, label %10, label %11

10:                                               ; preds = %7
  ret ptr %6

11:                                               ; preds = %.lr.ph, %7
  %.sroa.017.0 = load ptr, ptr %.sroa.017.030, align 8
  %.not27 = icmp eq ptr %.sroa.017.0, %0
  br i1 %.not27, label %._crit_edge, label %.lr.ph

._crit_edge:                                      ; preds = %11, %2
  %12 = tail call ptr @__cxa_allocate_exception(i64 24) #22
  invoke void @_ZplPKcRK7QString(ptr dead_on_unwind nonnull writable sret(%class.QString) align 8 %4, ptr noundef nonnull @.str.6, ptr noundef nonnull align 8 dereferenceable(8) %1)
          to label %13 unwind label %.thread

13:                                               ; preds = %._crit_edge
  invoke void @_ZplRK7QStringPKc(ptr dead_on_unwind nonnull writable sret(%class.QString) align 8 %3, ptr noundef nonnull align 8 dereferenceable(8) %4, ptr noundef nonnull @.str.7)
          to label %14 unwind label %.thread24

14:                                               ; preds = %13
  invoke void @_ZN11MLExceptionC2ERK7QString(ptr noundef nonnull align 8 dereferenceable(24) %12, ptr noundef nonnull align 8 dereferenceable(8) %3)
          to label %15 unwind label %18

15:                                               ; preds = %14
  invoke void @__cxa_throw(ptr nonnull %12, ptr nonnull @_ZTI11MLException, ptr nonnull @_ZN11MLExceptionD2Ev) #26
          to label %22 unwind label %18

.thread:                                          ; preds = %._crit_edge
  %16 = landingpad { ptr, i32 }
          cleanup
  br label %20

.thread24:                                        ; preds = %13
  %17 = landingpad { ptr, i32 }
          cleanup
  call void @_ZN7QStringD2Ev(ptr noundef nonnull align 8 dereferenceable(8) %4) #22
  br label %20

18:                                               ; preds = %14, %15
  %.0 = phi i1 [ false, %15 ], [ true, %14 ]
  %19 = landingpad { ptr, i32 }
          cleanup
  call void @_ZN7QStringD2Ev(ptr noundef nonnull align 8 dereferenceable(8) %3) #22
  call void @_ZN7QStringD2Ev(ptr noundef nonnull align 8 dereferenceable(8) %4) #22
  br i1 %.0, label %20, label %21

20:                                               ; preds = %.thread24, %.thread, %18
  %.pn.pn23 = phi { ptr, i32 } [ %16, %.thread ], [ %19, %18 ], [ %17, %.thread24 ]
  call void @__cxa_free_exception(ptr %12) #22
  br label %21

21:                                               ; preds = %18, %20
  %.pn.pn22 = phi { ptr, i32 } [ %19, %18 ], [ %.pn.pn23, %20 ]
  resume { ptr, i32 } %.pn.pn22

22:                                               ; preds = %15
  unreachable
}